target datalayout = "e-m:e-p270:32:32-p271:32:32-p272:64:64-i64:64-i128:128-f80:128-n8:16:32:64-S128"
target triple = "x86_64-pc-linux-gnu"

%struct._asn1_ctx_t = type { i32, i32, i8, ptr, ptr, ptr, ptr, ptr, %struct.anon, %struct.anon.2, %struct.anon.3, ptr }
%struct.anon = type { i32, i8, i8, i8, ptr, ptr, i32, i32, ptr, ptr, ptr, %union.anon }
%union.anon = type { %struct.anon.0 }
%struct.anon.0 = type { ptr }
%struct.anon.2 = type { ptr, ptr, ptr }
%struct.anon.3 = type { i32, i8, ptr, i32, i32, ptr, ptr, ptr, %union.anon.4 }
%union.anon.4 = type { %struct.anon.5 }
%struct.anon.5 = type { ptr }
%struct.f1ap_private_data_t = type { i32, i32, i32, i32, ptr, i32, i32, i32, i32, ptr }

@ett_f1ap_sIBmessage = internal global i32 0, align 4
@proto_f1ap = internal global i32 0, align 4

; Function Attrs: null_pointer_is_valid sspstrong uwtable
define internal ptr @f1ap_get_private_data(ptr noundef %0) #0 {
  %2 = alloca ptr, align 8
  %3 = alloca ptr, align 8
  store ptr %0, ptr %2, align 8
  call void @llvm.lifetime.start.p0(i64 8, ptr %3) #5
  %4 = call ptr @wmem_file_scope()
  %5 = load ptr, ptr %2, align 8
  %6 = load i32, ptr @proto_f1ap, align 4
  %7 = call ptr @p_get_proto_data(ptr noundef %4, ptr noundef %5, i32 noundef %6, i32 noundef 0)
  store ptr %7, ptr %3, align 8
  %8 = load ptr, ptr %3, align 8
  %9 = icmp ne ptr %8, null
  br i1 %9, label %21, label %10

10:                                               ; preds = %1
  %11 = call ptr @wmem_file_scope()
  %12 = call noalias ptr @wmem_alloc0(ptr noundef %11, i64 noundef 48) #6
  store ptr %12, ptr %3, align 8
  %13 = load ptr, ptr %3, align 8
  %14 = getelementptr inbounds nuw %struct.f1ap_private_data_t, ptr %13, i32 0, i32 6
  store i32 -1, ptr %14, align 4
  %15 = load ptr, ptr %3, align 8
  %16 = getelementptr inbounds nuw %struct.f1ap_private_data_t, ptr %15, i32 0, i32 7
  store i32 1, ptr %16, align 8
  %17 = call ptr @wmem_file_scope()
  %18 = load ptr, ptr %2, align 8
  %19 = load i32, ptr @proto_f1ap, align 4
  %20 = load ptr, ptr %3, align 8
  call void @p_add_proto_data(ptr noundef %17, ptr noundef %18, i32 noundef %19, i32 noundef 0, ptr noundef %20)
  br label %21

21:                                               ; preds = %10, %1
  %22 = load ptr, ptr %3, align 8
  call void @llvm.lifetime.end.p0(i64 8, ptr %3) #5
  ret ptr %22
}

; Function Attrs: null_pointer_is_valid sspstrong uwtable
define internal i32 @dissect_f1ap_T_sIBmessage_01(ptr noundef %0, i32 noundef %1, ptr noundef %2, ptr noundef %3, i32 noundef %4) #0 {
  %6 = alloca ptr, align 8
  %7 = alloca i32, align 4
  %8 = alloca ptr, align 8
  %9 = alloca ptr, align 8
  %10 = alloca i32, align 4
  %11 = alloca ptr, align 8
  %12 = alloca ptr, align 8
  %13 = alloca ptr, align 8
  store ptr %0, ptr %6, align 8
  store i32 %1, ptr %7, align 4
  store ptr %2, ptr %8, align 8
  store ptr %3, ptr %9, align 8
  store i32 %4, ptr %10, align 4
  call void @llvm.lifetime.start.p0(i64 8, ptr %11) #5
  store ptr null, ptr %11, align 8
  %14 = load ptr, ptr %6, align 8
  %15 = load i32, ptr %7, align 4
  %16 = load ptr, ptr %8, align 8
  %17 = load ptr, ptr %9, align 8
  %18 = load i32, ptr %10, align 4
  %19 = call i32 @dissect_per_octet_string(ptr noundef %14, i32 noundef %15, ptr noundef %16, ptr noundef %17, i32 noundef %18, i32 noundef -1, i32 noundef -1, i1 noundef zeroext false, ptr noundef %11)
  store i32 %19, ptr %7, align 4
  %20 = load ptr, ptr %11, align 8
  %21 = icmp ne ptr %20, null
  br i1 %21, label %22, label %205

22:                                               ; preds = %5
  call void @llvm.lifetime.start.p0(i64 8, ptr %12) #5
  %23 = load ptr, ptr %8, align 8
  %24 = getelementptr inbounds nuw %struct._asn1_ctx_t, ptr %23, i32 0, i32 3
  %25 = load ptr, ptr %24, align 8
  %26 = call ptr @f1ap_get_private_data(ptr noundef %25)
  store ptr %26, ptr %12, align 8
  call void @llvm.lifetime.start.p0(i64 8, ptr %13) #5
  %27 = load ptr, ptr %8, align 8
  %28 = getelementptr inbounds nuw %struct._asn1_ctx_t, ptr %27, i32 0, i32 4
  %29 = load ptr, ptr %28, align 8
  %30 = load i32, ptr @ett_f1ap_sIBmessage, align 4
  %31 = call ptr @proto_item_add_subtree(ptr noundef %29, i32 noundef %30)
  store ptr %31, ptr %13, align 8
  %32 = load ptr, ptr %12, align 8
  %33 = getelementptr inbounds nuw %struct.f1ap_private_data_t, ptr %32, i32 0, i32 5
  %34 = load i32, ptr %33, align 8
  switch i32 %34, label %203 [
    i32 2, label %35
    i32 3, label %42
    i32 4, label %49
    i32 5, label %56
    i32 6, label %63
    i32 7, label %70
    i32 8, label %77
    i32 9, label %84
    i32 10, label %91
    i32 11, label %98
    i32 12, label %105
    i32 13, label %112
    i32 14, label %119
    i32 15, label %126
    i32 16, label %133
    i32 17, label %140
    i32 18, label %147
    i32 19, label %154
    i32 20, label %161
    i32 21, label %168
    i32 22, label %175
    i32 23, label %182
    i32 24, label %189
    i32 25, label %196
  ]

35:                                               ; preds = %22
  %36 = load ptr, ptr %11, align 8
  %37 = load ptr, ptr %8, align 8
  %38 = getelementptr inbounds nuw %struct._asn1_ctx_t, ptr %37, i32 0, i32 3
  %39 = load ptr, ptr %38, align 8
  %40 = load ptr, ptr %13, align 8
  %41 = call i32 @dissect_nr_rrc_SIB2_PDU(ptr noundef %36, ptr noundef %39, ptr noundef %40, ptr noundef null)
  br label %204

42:                                               ; preds = %22
  %43 = load ptr, ptr %11, align 8
  %44 = load ptr, ptr %8, align 8
  %45 = getelementptr inbounds nuw %struct._asn1_ctx_t, ptr %44, i32 0, i32 3
  %46 = load ptr, ptr %45, align 8
  %47 = load ptr, ptr %13, align 8
  %48 = call i32 @dissect_nr_rrc_SIB3_PDU(ptr noundef %43, ptr noundef %46, ptr noundef %47, ptr noundef null)
  br label %204

49:                                               ; preds = %22
  %50 = load ptr, ptr %11, align 8
  %51 = load ptr, ptr %8, align 8
  %52 = getelementptr inbounds nuw %struct._asn1_ctx_t, ptr %51, i32 0, i32 3
  %53 = load ptr, ptr %52, align 8
  %54 = load ptr, ptr %13, align 8
  %55 = call i32 @dissect_nr_rrc_SIB4_PDU(ptr noundef %50, ptr noundef %53, ptr noundef %54, ptr noundef null)
  br label %204

56:                                               ; preds = %22
  %57 = load ptr, ptr %11, align 8
  %58 = load ptr, ptr %8, align 8
  %59 = getelementptr inbounds nuw %struct._asn1_ctx_t, ptr %58, i32 0, i32 3
  %60 = load ptr, ptr %59, align 8
  %61 = load ptr, ptr %13, align 8
  %62 = call i32 @dissect_nr_rrc_SIB5_PDU(ptr noundef %57, ptr noundef %60, ptr noundef %61, ptr noundef null)
  br label %204

63:                                               ; preds = %22
  %64 = load ptr, ptr %11, align 8
  %65 = load ptr, ptr %8, align 8
  %66 = getelementptr inbounds nuw %struct._asn1_ctx_t, ptr %65, i32 0, i32 3
  %67 = load ptr, ptr %66, align 8
  %68 = load ptr, ptr %13, align 8
  %69 = call i32 @dissect_nr_rrc_SIB6_PDU(ptr noundef %64, ptr noundef %67, ptr noundef %68, ptr noundef null)
  br label %204

70:                                               ; preds = %22
  %71 = load ptr, ptr %11, align 8
  %72 = load ptr, ptr %8, align 8
  %73 = getelementptr inbounds nuw %struct._asn1_ctx_t, ptr %72, i32 0, i32 3
  %74 = load ptr, ptr %73, align 8
  %75 = load ptr, ptr %13, align 8
  %76 = call i32 @dissect_nr_rrc_SIB7_PDU(ptr noundef %71, ptr noundef %74, ptr noundef %75, ptr noundef null)
  br label %204

77:                                               ; preds = %22
  %78 = load ptr, ptr %11, align 8
  %79 = load ptr, ptr %8, align 8
  %80 = getelementptr inbounds nuw %struct._asn1_ctx_t, ptr %79, i32 0, i32 3
  %81 = load ptr, ptr %80, align 8
  %82 = load ptr, ptr %13, align 8
  %83 = call i32 @dissect_nr_rrc_SIB8_PDU(ptr noundef %78, ptr noundef %81, ptr noundef %82, ptr noundef null)
  br label %204

84:                                               ; preds = %22
  %85 = load ptr, ptr %11, align 8
  %86 = load ptr, ptr %8, align 8
  %87 = getelementptr inbounds nuw %struct._asn1_ctx_t, ptr %86, i32 0, i32 3
  %88 = load ptr, ptr %87, align 8
  %89 = load ptr, ptr %13, align 8
  %90 = call i32 @dissect_nr_rrc_SIB9_PDU(ptr noundef %85, ptr noundef %88, ptr noundef %89, ptr noundef null)
  br label %204

91:                                               ; preds = %22
  %92 = load ptr, ptr %11, align 8
  %93 = load ptr, ptr %8, align 8
  %94 = getelementptr inbounds nuw %struct._asn1_ctx_t, ptr %93, i32 0, i32 3
  %95 = load ptr, ptr %94, align 8
  %96 = load ptr, ptr %13, align 8
  %97 = call i32 @dissect_nr_rrc_SIB10_r16_PDU(ptr noundef %92, ptr noundef %95, ptr noundef %96, ptr noundef null)
  br label %204

98:                                               ; preds = %22
  %99 = load ptr, ptr %11, align 8
  %100 = load ptr, ptr %8, align 8
  %101 = getelementptr inbounds nuw %struct._asn1_ctx_t, ptr %100, i32 0, i32 3
  %102 = load ptr, ptr %101, align 8
  %103 = load ptr, ptr %13, align 8
  %104 = call i32 @dissect_nr_rrc_SIB11_r16_PDU(ptr noundef %99, ptr noundef %102, ptr noundef %103, ptr noundef null)
  br label %204

105:                                              ; preds = %22
  %106 = load ptr, ptr %11, align 8
  %107 = load ptr, ptr %8, align 8
  %108 = getelementptr inbounds nuw %struct._asn1_ctx_t, ptr %107, i32 0, i32 3
  %109 = load ptr, ptr %108, align 8
  %110 = load ptr, ptr %13, align 8
  %111 = call i32 @dissect_nr_rrc_SIB12_r16_PDU(ptr noundef %106, ptr noundef %109, ptr noundef %110, ptr noundef null)
  br label %204

112:                                              ; preds = %22
  %113 = load ptr, ptr %11, align 8
  %114 = load ptr, ptr %8, align 8
  %115 = getelementptr inbounds nuw %struct._asn1_ctx_t, ptr %114, i32 0, i32 3
  %116 = load ptr, ptr %115, align 8
  %117 = load ptr, ptr %13, align 8
  %118 = call i32 @dissect_nr_rrc_SIB13_r16_PDU(ptr noundef %113, ptr noundef %116, ptr noundef %117, ptr noundef null)
  br label %204

119:                                              ; preds = %22
  %120 = load ptr, ptr %11, align 8
  %121 = load ptr, ptr %8, align 8
  %122 = getelementptr inbounds nuw %struct._asn1_ctx_t, ptr %121, i32 0, i32 3
  %123 = load ptr, ptr %122, align 8
  %124 = load ptr, ptr %13, align 8
  %125 = call i32 @dissect_nr_rrc_SIB14_r16_PDU(ptr noundef %120, ptr noundef %123, ptr noundef %124, ptr noundef null)
  br label %204

126:                                              ; preds = %22
  %127 = load ptr, ptr %11, align 8
  %128 = load ptr, ptr %8, align 8
  %129 = getelementptr inbounds nuw %struct._asn1_ctx_t, ptr %128, i32 0, i32 3
  %130 = load ptr, ptr %129, align 8
  %131 = load ptr, ptr %13, align 8
  %132 = call i32 @dissect_nr_rrc_SIB15_r17_PDU(ptr noundef %127, ptr noundef %130, ptr noundef %131, ptr noundef null)
  br label %204

133:                                              ; preds = %22
  %134 = load ptr, ptr %11, align 8
  %135 = load ptr, ptr %8, align 8
  %136 = getelementptr inbounds nuw %struct._asn1_ctx_t, ptr %135, i32 0, i32 3
  %137 = load ptr, ptr %136, align 8
  %138 = load ptr, ptr %13, align 8
  %139 = call i32 @dissect_nr_rrc_SIB16_r17_PDU(ptr noundef %134, ptr noundef %137, ptr noundef %138, ptr noundef null)
  br label %204

140:                                              ; preds = %22
  %141 = load ptr, ptr %11, align 8
  %142 = load ptr, ptr %8, align 8
  %143 = getelementptr inbounds nuw %struct._asn1_ctx_t, ptr %142, i32 0, i32 3
  %144 = load ptr, ptr %143, align 8
  %145 = load ptr, ptr %13, align 8
  %146 = call i32 @dissect_nr_rrc_SIB17_r17_PDU(ptr noundef %141, ptr noundef %144, ptr noundef %145, ptr noundef null)
  br label %204

147:                                              ; preds = %22
  %148 = load ptr, ptr %11, align 8
  %149 = load ptr, ptr %8, align 8
  %150 = getelementptr inbounds nuw %struct._asn1_ctx_t, ptr %149, i32 0, i32 3
  %151 = load ptr, ptr %150, align 8
  %152 = load ptr, ptr %13, align 8
  %153 = call i32 @dissect_nr_rrc_SIB18_r17_PDU(ptr noundef %148, ptr noundef %151, ptr noundef %152, ptr noundef null)
  br label %204

154:                                              ; preds = %22
  %155 = load ptr, ptr %11, align 8
  %156 = load ptr, ptr %8, align 8
  %157 = getelementptr inbounds nuw %struct._asn1_ctx_t, ptr %156, i32 0, i32 3
  %158 = load ptr, ptr %157, align 8
  %159 = load ptr, ptr %13, align 8
  %160 = call i32 @dissect_nr_rrc_SIB19_r17_PDU(ptr noundef %155, ptr noundef %158, ptr noundef %159, ptr noundef null)
  br label %204

161:                                              ; preds = %22
  %162 = load ptr, ptr %11, align 8
  %163 = load ptr, ptr %8, align 8
  %164 = getelementptr inbounds nuw %struct._asn1_ctx_t, ptr %163, i32 0, i32 3
  %165 = load ptr, ptr %164, align 8
  %166 = load ptr, ptr %13, align 8
  %167 = call i32 @dissect_nr_rrc_SIB20_r17_PDU(ptr noundef %162, ptr noundef %165, ptr noundef %166, ptr noundef null)
  br label %204

168:                                              ; preds = %22
  %169 = load ptr, ptr %11, align 8
  %170 = load ptr, ptr %8, align 8
  %171 = getelementptr inbounds nuw %struct._asn1_ctx_t, ptr %170, i32 0, i32 3
  %172 = load ptr, ptr %171, align 8
  %173 = load ptr, ptr %13, align 8
  %174 = call i32 @dissect_nr_rrc_SIB21_r17_PDU(ptr noundef %169, ptr noundef %172, ptr noundef %173, ptr noundef null)
  br label %204

175:                                              ; preds = %22
  %176 = load ptr, ptr %11, align 8
  %177 = load ptr, ptr %8, align 8
  %178 = getelementptr inbounds nuw %struct._asn1_ctx_t, ptr %177, i32 0, i32 3
  %179 = load ptr, ptr %178, align 8
  %180 = load ptr, ptr %13, align 8
  %181 = call i32 @dissect_nr_rrc_SIB22_r18_PDU(ptr noundef %176, ptr noundef %179, ptr noundef %180, ptr noundef null)
  br label %204

182:                                              ; preds = %22
  %183 = load ptr, ptr %11, align 8
  %184 = load ptr, ptr %8, align 8
  %185 = getelementptr inbounds nuw %struct._asn1_ctx_t, ptr %184, i32 0, i32 3
  %186 = load ptr, ptr %185, align 8
  %187 = load ptr, ptr %13, align 8
  %188 = call i32 @dissect_nr_rrc_SIB23_r18_PDU(ptr noundef %183, ptr noundef %186, ptr noundef %187, ptr noundef null)
  br label %204

189:                                              ; preds = %22
  %190 = load ptr, ptr %11, align 8
  %191 = load ptr, ptr %8, align 8
  %192 = getelementptr inbounds nuw %struct._asn1_ctx_t, ptr %191, i32 0, i32 3
  %193 = load ptr, ptr %192, align 8
  %194 = load ptr, ptr %13, align 8
  %195 = call i32 @dissect_nr_rrc_SIB24_r18_PDU(ptr noundef %190, ptr noundef %193, ptr noundef %194, ptr noundef null)
  br label %204

196:                                              ; preds = %22
  %197 = load ptr, ptr %11, align 8
  %198 = load ptr, ptr %8, align 8
  %199 = getelementptr inbounds nuw %struct._asn1_ctx_t, ptr %198, i32 0, i32 3
  %200 = load ptr, ptr %199, align 8
  %201 = load ptr, ptr %13, align 8
  %202 = call i32 @dissect_nr_rrc_SIB25_r18_PDU(ptr noundef %197, ptr noundef %200, ptr noundef %201, ptr noundef null)
  br label %204

203:                                              ; preds = %22
  br label %204

204:                                              ; preds = %203, %196, %189, %182, %175, %168, %161, %154, %147, %140, %133, %126, %119, %112, %105, %98, %91, %84, %77, %70, %63, %56, %49, %42, %35
  call void @llvm.lifetime.end.p0(i64 8, ptr %13) #5
  call void @llvm.lifetime.end.p0(i64 8, ptr %12) #5
  br label %205

205:                                              ; preds = %204, %5
  %206 = load i32, ptr %7, align 4
  call void @llvm.lifetime.end.p0(i64 8, ptr %11) #5
  ret i32 %206
}