; Function Attrs: null_pointer_is_valid sspstrong uwtable
define internal i32 @dissect_f1ap_T_sIBmessage_01(ptr noundef %0, i32 noundef %1, ptr noundef %2, ptr noundef %3, i32 noundef %4) #0 {
  %6 = alloca ptr, align 8
  call void @llvm.lifetime.start.p0(i64 8, ptr nonnull %6) #6
  store ptr null, ptr %6, align 8
  %7 = call i32 @dissect_per_octet_string(ptr noundef %0, i32 noundef %1, ptr noundef %2, ptr noundef %3, i32 noundef %4, i32 noundef -1, i32 noundef -1, i1 noundef zeroext false, ptr noundef nonnull %6)
  %8 = load ptr, ptr %6, align 8
  %.not = icmp eq ptr %8, null
  br i1 %.not, label %124, label %9

9:                                                ; preds = %5
  %10 = getelementptr inbounds nuw i8, ptr %2, i64 16
  %11 = load ptr, ptr %10, align 8
  %12 = call ptr @wmem_file_scope()
  %13 = load i32, ptr @proto_f1ap, align 4
  %14 = call ptr @p_get_proto_data(ptr noundef %12, ptr noundef %11, i32 noundef %13, i32 noundef 0)
  %.not.i = icmp eq ptr %14, null
  br i1 %.not.i, label %15, label %f1ap_get_private_data.exit

15:                                               ; preds = %9
  %16 = call ptr @wmem_file_scope()
  %17 = call noalias dereferenceable_or_null(48) ptr @wmem_alloc0(ptr noundef %16, i64 noundef 48) #7
  %18 = getelementptr inbounds nuw i8, ptr %17, i64 28
  store i32 -1, ptr %18, align 4
  %19 = getelementptr inbounds nuw i8, ptr %17, i64 32
  store i32 1, ptr %19, align 8
  %20 = call ptr @wmem_file_scope()
  %21 = load i32, ptr @proto_f1ap, align 4
  call void @p_add_proto_data(ptr noundef %20, ptr noundef %11, i32 noundef %21, i32 noundef 0, ptr noundef %17)
  br label %f1ap_get_private_data.exit

f1ap_get_private_data.exit:                       ; preds = %9, %15
  %.0.i = phi ptr [ %14, %9 ], [ %17, %15 ]
  %22 = getelementptr inbounds nuw i8, ptr %2, i64 24
  %23 = load ptr, ptr %22, align 8
  %24 = load i32, ptr @ett_f1ap_sIBmessage, align 4
  %25 = call ptr @proto_item_add_subtree(ptr noundef %23, i32 noundef %24)
  %26 = getelementptr inbounds nuw i8, ptr %.0.i, i64 24
  %27 = load i32, ptr %26, align 8
  switch i32 %27, label %124 [
    i32 2, label %28
    i32 3, label %32
    i32 4, label %36
    i32 5, label %40
    i32 6, label %44
    i32 7, label %48
    i32 8, label %52
    i32 9, label %56
    i32 10, label %60
    i32 11, label %64
    i32 12, label %68
    i32 13, label %72
    i32 14, label %76
    i32 15, label %80
    i32 16, label %84
    i32 17, label %88
    i32 18, label %92
    i32 19, label %96
    i32 20, label %100
    i32 21, label %104
    i32 22, label %108
    i32 23, label %112
    i32 24, label %116
    i32 25, label %120
  ]

28:                                               ; preds = %f1ap_get_private_data.exit
  %29 = load ptr, ptr %6, align 8
  %30 = load ptr, ptr %10, align 8
  %31 = call i32 @dissect_nr_rrc_SIB2_PDU(ptr noundef %29, ptr noundef %30, ptr noundef %25, ptr noundef null)
  br label %124

32:                                               ; preds = %f1ap_get_private_data.exit
  %33 = load ptr, ptr %6, align 8
  %34 = load ptr, ptr %10, align 8
  %35 = call i32 @dissect_nr_rrc_SIB3_PDU(ptr noundef %33, ptr noundef %34, ptr noundef %25, ptr noundef null)
  br label %124

36:                                               ; preds = %f1ap_get_private_data.exit
  %37 = load ptr, ptr %6, align 8
  %38 = load ptr, ptr %10, align 8
  %39 = call i32 @dissect_nr_rrc_SIB4_PDU(ptr noundef %37, ptr noundef %38, ptr noundef %25, ptr noundef null)
  br label %124

40:                                               ; preds = %f1ap_get_private_data.exit
  %41 = load ptr, ptr %6, align 8
  %42 = load ptr, ptr %10, align 8
  %43 = call i32 @dissect_nr_rrc_SIB5_PDU(ptr noundef %41, ptr noundef %42, ptr noundef %25, ptr noundef null)
  br label %124

44:                                               ; preds = %f1ap_get_private_data.exit
  %45 = load ptr, ptr %6, align 8
  %46 = load ptr, ptr %10, align 8
  %47 = call i32 @dissect_nr_rrc_SIB6_PDU(ptr noundef %45, ptr noundef %46, ptr noundef %25, ptr noundef null)
  br label %124

48:                                               ; preds = %f1ap_get_private_data.exit
  %49 = load ptr, ptr %6, align 8
  %50 = load ptr, ptr %10, align 8
  %51 = call i32 @dissect_nr_rrc_SIB7_PDU(ptr noundef %49, ptr noundef %50, ptr noundef %25, ptr noundef null)
  br label %124

52:                                               ; preds = %f1ap_get_private_data.exit
  %53 = load ptr, ptr %6, align 8
  %54 = load ptr, ptr %10, align 8
  %55 = call i32 @dissect_nr_rrc_SIB8_PDU(ptr noundef %53, ptr noundef %54, ptr noundef %25, ptr noundef null)
  br label %124

56:                                               ; preds = %f1ap_get_private_data.exit
  %57 = load ptr, ptr %6, align 8
  %58 = load ptr, ptr %10, align 8
  %59 = call i32 @dissect_nr_rrc_SIB9_PDU(ptr noundef %57, ptr noundef %58, ptr noundef %25, ptr noundef null)
  br label %124

60:                                               ; preds = %f1ap_get_private_data.exit
  %61 = load ptr, ptr %6, align 8
  %62 = load ptr, ptr %10, align 8
  %63 = call i32 @dissect_nr_rrc_SIB10_r16_PDU(ptr noundef %61, ptr noundef %62, ptr noundef %25, ptr noundef null)
  br label %124

64:                                               ; preds = %f1ap_get_private_data.exit
  %65 = load ptr, ptr %6, align 8
  %66 = load ptr, ptr %10, align 8
  %67 = call i32 @dissect_nr_rrc_SIB11_r16_PDU(ptr noundef %65, ptr noundef %66, ptr noundef %25, ptr noundef null)
  br label %124

68:                                               ; preds = %f1ap_get_private_data.exit
  %69 = load ptr, ptr %6, align 8
  %70 = load ptr, ptr %10, align 8
  %71 = call i32 @dissect_nr_rrc_SIB12_r16_PDU(ptr noundef %69, ptr noundef %70, ptr noundef %25, ptr noundef null)
  br label %124

72:                                               ; preds = %f1ap_get_private_data.exit
  %73 = load ptr, ptr %6, align 8
  %74 = load ptr, ptr %10, align 8
  %75 = call i32 @dissect_nr_rrc_SIB13_r16_PDU(ptr noundef %73, ptr noundef %74, ptr noundef %25, ptr noundef null)
  br label %124

76:                                               ; preds = %f1ap_get_private_data.exit
  %77 = load ptr, ptr %6, align 8
  %78 = load ptr, ptr %10, align 8
  %79 = call i32 @dissect_nr_rrc_SIB14_r16_PDU(ptr noundef %77, ptr noundef %78, ptr noundef %25, ptr noundef null)
  br label %124

80:                                               ; preds = %f1ap_get_private_data.exit
  %81 = load ptr, ptr %6, align 8
  %82 = load ptr, ptr %10, align 8
  %83 = call i32 @dissect_nr_rrc_SIB15_r17_PDU(ptr noundef %81, ptr noundef %82, ptr noundef %25, ptr noundef null)
  br label %124

84:                                               ; preds = %f1ap_get_private_data.exit
  %85 = load ptr, ptr %6, align 8
  %86 = load ptr, ptr %10, align 8
  %87 = call i32 @dissect_nr_rrc_SIB16_r17_PDU(ptr noundef %85, ptr noundef %86, ptr noundef %25, ptr noundef null)
  br label %124

88:                                               ; preds = %f1ap_get_private_data.exit
  %89 = load ptr, ptr %6, align 8
  %90 = load ptr, ptr %10, align 8
  %91 = call i32 @dissect_nr_rrc_SIB17_r17_PDU(ptr noundef %89, ptr noundef %90, ptr noundef %25, ptr noundef null)
  br label %124

92:                                               ; preds = %f1ap_get_private_data.exit
  %93 = load ptr, ptr %6, align 8
  %94 = load ptr, ptr %10, align 8
  %95 = call i32 @dissect_nr_rrc_SIB18_r17_PDU(ptr noundef %93, ptr noundef %94, ptr noundef %25, ptr noundef null)
  br label %124

96:                                               ; preds = %f1ap_get_private_data.exit
  %97 = load ptr, ptr %6, align 8
  %98 = load ptr, ptr %10, align 8
  %99 = call i32 @dissect_nr_rrc_SIB19_r17_PDU(ptr noundef %97, ptr noundef %98, ptr noundef %25, ptr noundef null)
  br label %124

100:                                              ; preds = %f1ap_get_private_data.exit
  %101 = load ptr, ptr %6, align 8
  %102 = load ptr, ptr %10, align 8
  %103 = call i32 @dissect_nr_rrc_SIB20_r17_PDU(ptr noundef %101, ptr noundef %102, ptr noundef %25, ptr noundef null)
  br label %124

104:                                              ; preds = %f1ap_get_private_data.exit
  %105 = load ptr, ptr %6, align 8
  %106 = load ptr, ptr %10, align 8
  %107 = call i32 @dissect_nr_rrc_SIB21_r17_PDU(ptr noundef %105, ptr noundef %106, ptr noundef %25, ptr noundef null)
  br label %124

108:                                              ; preds = %f1ap_get_private_data.exit
  %109 = load ptr, ptr %6, align 8
  %110 = load ptr, ptr %10, align 8
  %111 = call i32 @dissect_nr_rrc_SIB22_r18_PDU(ptr noundef %109, ptr noundef %110, ptr noundef %25, ptr noundef null)
  br label %124

112:                                              ; preds = %f1ap_get_private_data.exit
  %113 = load ptr, ptr %6, align 8
  %114 = load ptr, ptr %10, align 8
  %115 = call i32 @dissect_nr_rrc_SIB23_r18_PDU(ptr noundef %113, ptr noundef %114, ptr noundef %25, ptr noundef null)
  br label %124

116:                                              ; preds = %f1ap_get_private_data.exit
  %117 = load ptr, ptr %6, align 8
  %118 = load ptr, ptr %10, align 8
  %119 = call i32 @dissect_nr_rrc_SIB24_r18_PDU(ptr noundef %117, ptr noundef %118, ptr noundef %25, ptr noundef null)
  br label %124

120:                                              ; preds = %f1ap_get_private_data.exit
  %121 = load ptr, ptr %6, align 8
  %122 = load ptr, ptr %10, align 8
  %123 = call i32 @dissect_nr_rrc_SIB25_r18_PDU(ptr noundef %121, ptr noundef %122, ptr noundef %25, ptr noundef null)
  br label %124

124:                                              ; preds = %28, %32, %36, %40, %44, %48, %52, %56, %60, %64, %68, %72, %76, %80, %84, %88, %92, %96, %100, %104, %108, %112, %116, %120, %f1ap_get_private_data.exit, %5
  call void @llvm.lifetime.end.p0(i64 8, ptr nonnull %6) #6
  ret i32 %7
}